target datalayout = "e-m:e-p270:32:32-p271:32:32-p272:64:64-i64:64-i128:128-f80:128-n8:16:32:64-S128"
target triple = "x86_64-pc-linux-gnu"

; Function Attrs: nounwind uwtable
define dso_local i32 @luaL_ref(ptr noundef %0, i32 noundef %1) #0 {
  %3 = alloca i32, align 4
  %4 = alloca ptr, align 8
  %5 = alloca i32, align 4
  %6 = alloca i32, align 4
  %7 = alloca i32, align 4
  store ptr %0, ptr %4, align 8, !tbaa !4
  store i32 %1, ptr %5, align 4, !tbaa !9
  call void @llvm.lifetime.start.p0(i64 4, ptr %6) #9
  %8 = load i32, ptr %5, align 4, !tbaa !9
  %9 = icmp sgt i32 %8, 0
  br i1 %9, label %13, label %10

10:                                               ; preds = %2
  %11 = load i32, ptr %5, align 4, !tbaa !9
  %12 = icmp sle i32 %11, -10000
  br i1 %12, label %13, label %15

13:                                               ; preds = %10, %2
  %14 = load i32, ptr %5, align 4, !tbaa !9
  br label %21

15:                                               ; preds = %10
  %16 = load ptr, ptr %4, align 8, !tbaa !4
  %17 = call i32 @lua_gettop(ptr noundef %16)
  %18 = load i32, ptr %5, align 4, !tbaa !9
  %19 = add nsw i32 %17, %18
  %20 = add nsw i32 %19, 1
  br label %21

21:                                               ; preds = %15, %13
  %22 = phi i32 [ %14, %13 ], [ %20, %15 ]
  store i32 %22, ptr %5, align 4, !tbaa !9
  %23 = load ptr, ptr %4, align 8, !tbaa !4
  %24 = call i32 @lua_type(ptr noundef %23, i32 noundef -1)
  %25 = icmp eq i32 %24, 0
  br i1 %25, label %26, label %28

26:                                               ; preds = %21
  %27 = load ptr, ptr %4, align 8, !tbaa !4
  call void @lua_settop(ptr noundef %27, i32 noundef -2)
  store i32 -1, ptr %3, align 4
  store i32 1, ptr %7, align 4
  br label %55

28:                                               ; preds = %21
  %29 = load ptr, ptr %4, align 8, !tbaa !4
  %30 = load i32, ptr %5, align 4, !tbaa !9
  call void @lua_rawgeti(ptr noundef %29, i32 noundef %30, i32 noundef 0)
  %31 = load ptr, ptr %4, align 8, !tbaa !4
  %32 = call i64 @lua_tointeger(ptr noundef %31, i32 noundef -1)
  %33 = trunc i64 %32 to i32
  store i32 %33, ptr %6, align 4, !tbaa !9
  %34 = load ptr, ptr %4, align 8, !tbaa !4
  call void @lua_settop(ptr noundef %34, i32 noundef -2)
  %35 = load i32, ptr %6, align 4, !tbaa !9
  %36 = icmp ne i32 %35, 0
  br i1 %36, label %37, label %43

37:                                               ; preds = %28
  %38 = load ptr, ptr %4, align 8, !tbaa !4
  %39 = load i32, ptr %5, align 4, !tbaa !9
  %40 = load i32, ptr %6, align 4, !tbaa !9
  call void @lua_rawgeti(ptr noundef %38, i32 noundef %39, i32 noundef %40)
  %41 = load ptr, ptr %4, align 8, !tbaa !4
  %42 = load i32, ptr %5, align 4, !tbaa !9
  call void @lua_rawseti(ptr noundef %41, i32 noundef %42, i32 noundef 0)
  br label %50

43:                                               ; preds = %28
  %44 = load ptr, ptr %4, align 8, !tbaa !4
  %45 = load i32, ptr %5, align 4, !tbaa !9
  %46 = call i64 @lua_objlen(ptr noundef %44, i32 noundef %45)
  %47 = trunc i64 %46 to i32
  store i32 %47, ptr %6, align 4, !tbaa !9
  %48 = load i32, ptr %6, align 4, !tbaa !9
  %49 = add nsw i32 %48, 1
  store i32 %49, ptr %6, align 4, !tbaa !9
  br label %50

50:                                               ; preds = %43, %37
  %51 = load ptr, ptr %4, align 8, !tbaa !4
  %52 = load i32, ptr %5, align 4, !tbaa !9
  %53 = load i32, ptr %6, align 4, !tbaa !9
  call void @lua_rawseti(ptr noundef %51, i32 noundef %52, i32 noundef %53)
  %54 = load i32, ptr %6, align 4, !tbaa !9
  store i32 %54, ptr %3, align 4
  store i32 1, ptr %7, align 4
  br label %55

55:                                               ; preds = %50, %26
  call void @llvm.lifetime.end.p0(i64 4, ptr %6) #9
  %56 = load i32, ptr %3, align 4
  ret i32 %56
}