; Function Attrs: nounwind uwtable
define dso_local noundef i32 @luaL_ref(ptr noundef %0, i32 noundef %1) local_unnamed_addr #0 {
  %3 = add i32 %1, -1
  %or.cond = icmp ult i32 %3, -10000
  br i1 %or.cond, label %8, label %4

4:                                                ; preds = %2
  %5 = tail call i32 @lua_gettop(ptr noundef %0) #17
  %6 = add nsw i32 %1, 1
  %7 = add i32 %6, %5
  br label %8

8:                                                ; preds = %2, %4
  %9 = phi i32 [ %7, %4 ], [ %1, %2 ]
  %10 = tail call i32 @lua_type(ptr noundef %0, i32 noundef -1) #17
  %11 = icmp eq i32 %10, 0
  br i1 %11, label %12, label %13

12:                                               ; preds = %8
  tail call void @lua_settop(ptr noundef %0, i32 noundef -2) #17
  br label %22

13:                                               ; preds = %8
  tail call void @lua_rawgeti(ptr noundef %0, i32 noundef %9, i32 noundef 0) #17
  %14 = tail call i64 @lua_tointeger(ptr noundef %0, i32 noundef -1) #17
  %15 = trunc i64 %14 to i32
  tail call void @lua_settop(ptr noundef %0, i32 noundef -2) #17
  %.not = icmp eq i32 %15, 0
  br i1 %.not, label %17, label %16

16:                                               ; preds = %13
  tail call void @lua_rawgeti(ptr noundef %0, i32 noundef %9, i32 noundef %15) #17
  tail call void @lua_rawseti(ptr noundef %0, i32 noundef %9, i32 noundef 0) #17
  br label %21

17:                                               ; preds = %13
  %18 = tail call i64 @lua_objlen(ptr noundef %0, i32 noundef %9) #17
  %19 = trunc i64 %18 to i32
  %20 = add nsw i32 %19, 1
  br label %21

21:                                               ; preds = %17, %16
  %.0 = phi i32 [ %15, %16 ], [ %20, %17 ]
  tail call void @lua_rawseti(ptr noundef %0, i32 noundef %9, i32 noundef %.0) #17
  br label %22

22:                                               ; preds = %21, %12
  %.025 = phi i32 [ -1, %12 ], [ %.0, %21 ]
  ret i32 %.025
}